target datalayout = "e-m:e-p270:32:32-p271:32:32-p272:64:64-i64:64-i128:128-f80:128-n8:16:32:64-S128"
target triple = "x86_64-pc-linux-gnu"

%struct.__va_list_tag = type { i32, i32, ptr, ptr }

; Function Attrs: nounwind uwtable
define hidden ptr @OPENSSL_realloc_clean(ptr noundef %0, i64 noundef %1, i64 noundef %2) #0 {
  %4 = alloca ptr, align 8
  %5 = alloca ptr, align 8
  %6 = alloca i64, align 8
  %7 = alloca i64, align 8
  %8 = alloca ptr, align 8
  %9 = alloca i32, align 4
  store ptr %0, ptr %5, align 8, !tbaa !6
  store i64 %1, ptr %6, align 8, !tbaa !10
  store i64 %2, ptr %7, align 8, !tbaa !10
  call void @llvm.lifetime.start.p0(i64 8, ptr %8) #8
  store ptr null, ptr %8, align 8, !tbaa !6
  %10 = load ptr, ptr %5, align 8, !tbaa !6
  %11 = icmp eq ptr %10, null
  br i1 %11, label %12, label %15

12:                                               ; preds = %3
  %13 = load i64, ptr %7, align 8, !tbaa !10
  %14 = call noalias ptr @malloc(i64 noundef %13) #9
  store ptr %14, ptr %4, align 8
  store i32 1, ptr %9, align 4
  br label %38

15:                                               ; preds = %3
  %16 = load i64, ptr %7, align 8, !tbaa !10
  %17 = icmp eq i64 %16, 0
  br i1 %17, label %18, label %19

18:                                               ; preds = %15
  store ptr null, ptr %4, align 8
  store i32 1, ptr %9, align 4
  br label %38

19:                                               ; preds = %15
  %20 = load i64, ptr %7, align 8, !tbaa !10
  %21 = load i64, ptr %6, align 8, !tbaa !10
  %22 = icmp ult i64 %20, %21
  br i1 %22, label %23, label %24

23:                                               ; preds = %19
  store ptr null, ptr %4, align 8
  store i32 1, ptr %9, align 4
  br label %38

24:                                               ; preds = %19
  %25 = load i64, ptr %7, align 8, !tbaa !10
  %26 = call noalias ptr @malloc(i64 noundef %25) #9
  store ptr %26, ptr %8, align 8, !tbaa !6
  %27 = load ptr, ptr %8, align 8, !tbaa !6
  %28 = icmp eq ptr %27, null
  br i1 %28, label %29, label %30

29:                                               ; preds = %24
  store ptr null, ptr %4, align 8
  store i32 1, ptr %9, align 4
  br label %38

30:                                               ; preds = %24
  %31 = load ptr, ptr %8, align 8, !tbaa !6
  %32 = load ptr, ptr %5, align 8, !tbaa !6
  %33 = load i64, ptr %6, align 8, !tbaa !10
  call void @llvm.memcpy.p0.p0.i64(ptr align 1 %31, ptr align 1 %32, i64 %33, i1 false)
  %34 = load ptr, ptr %5, align 8, !tbaa !6
  %35 = load i64, ptr %6, align 8, !tbaa !10
  call void @OPENSSL_cleanse(ptr noundef %34, i64 noundef %35)
  %36 = load ptr, ptr %5, align 8, !tbaa !6
  call void @free(ptr noundef %36) #8
  %37 = load ptr, ptr %8, align 8, !tbaa !6
  store ptr %37, ptr %4, align 8
  store i32 1, ptr %9, align 4
  br label %38

38:                                               ; preds = %30, %29, %23, %18, %12
  call void @llvm.lifetime.end.p0(i64 8, ptr %8) #8
  %39 = load ptr, ptr %4, align 8
  ret ptr %39
}

; Function Attrs: nocallback nofree nosync nounwind willreturn memory(argmem: readwrite)
declare void @llvm.lifetime.start.p0(i64 immarg, ptr captures(none)) #1

; Function Attrs: nounwind allocsize(0)
declare noalias ptr @malloc(i64 noundef) #2

; Function Attrs: nocallback nofree nounwind willreturn memory(argmem: readwrite)
declare void @llvm.memcpy.p0.p0.i64(ptr noalias writeonly captures(none), ptr noalias readonly captures(none), i64, i1 immarg) #3

; Function Attrs: nounwind uwtable
define hidden void @OPENSSL_cleanse(ptr noundef %0, i64 noundef %1) #0 {
  %3 = alloca ptr, align 8
  %4 = alloca i64, align 8
  store ptr %0, ptr %3, align 8, !tbaa !6
  store i64 %1, ptr %4, align 8, !tbaa !10
  %5 = load ptr, ptr %3, align 8, !tbaa !6
  %6 = load i64, ptr %4, align 8, !tbaa !10
  call void @llvm.memset.p0.i64(ptr align 1 %5, i8 0, i64 %6, i1 false)
  %7 = load ptr, ptr %3, align 8, !tbaa !6
  call void asm sideeffect "", "r,~{memory},~{dirflag},~{fpsr},~{flags}"(ptr %7) #8, !srcloc !12
  ret void
}

; Function Attrs: nounwind
declare void @free(ptr noundef) #4

; Function Attrs: nocallback nofree nosync nounwind willreturn memory(argmem: readwrite)
declare void @llvm.lifetime.end.p0(i64 immarg, ptr captures(none)) #1

; Function Attrs: nocallback nofree nounwind willreturn memory(argmem: write)
declare void @llvm.memset.p0.i64(ptr writeonly captures(none), i8, i64, i1 immarg) #5

; Function Attrs: nounwind uwtable
define hidden i32 @CRYPTO_memcmp(ptr noundef %0, ptr noundef %1, i64 noundef %2) #0 {
  %4 = alloca ptr, align 8
  %5 = alloca ptr, align 8
  %6 = alloca i64, align 8
  %7 = alloca i64, align 8
  %8 = alloca ptr, align 8
  %9 = alloca ptr, align 8
  %10 = alloca i8, align 1
  store ptr %0, ptr %4, align 8, !tbaa !6
  store ptr %1, ptr %5, align 8, !tbaa !6
  store i64 %2, ptr %6, align 8, !tbaa !10
  call void @llvm.lifetime.start.p0(i64 8, ptr %7) #8
  call void @llvm.lifetime.start.p0(i64 8, ptr %8) #8
  %11 = load ptr, ptr %4, align 8, !tbaa !6
  store ptr %11, ptr %8, align 8, !tbaa !13
  call void @llvm.lifetime.start.p0(i64 8, ptr %9) #8
  %12 = load ptr, ptr %5, align 8, !tbaa !6
  store ptr %12, ptr %9, align 8, !tbaa !13
  call void @llvm.lifetime.start.p0(i64 1, ptr %10) #8
  store i8 0, ptr %10, align 1, !tbaa !15
  store i64 0, ptr %7, align 8, !tbaa !10
  br label %13

13:                                               ; preds = %33, %3
  %14 = load i64, ptr %7, align 8, !tbaa !10
  %15 = load i64, ptr %6, align 8, !tbaa !10
  %16 = icmp ult i64 %14, %15
  br i1 %16, label %17, label %36

17:                                               ; preds = %13
  %18 = load ptr, ptr %8, align 8, !tbaa !13
  %19 = load i64, ptr %7, align 8, !tbaa !10
  %20 = getelementptr inbounds nuw i8, ptr %18, i64 %19
  %21 = load i8, ptr %20, align 1, !tbaa !15
  %22 = zext i8 %21 to i32
  %23 = load ptr, ptr %9, align 8, !tbaa !13
  %24 = load i64, ptr %7, align 8, !tbaa !10
  %25 = getelementptr inbounds nuw i8, ptr %23, i64 %24
  %26 = load i8, ptr %25, align 1, !tbaa !15
  %27 = zext i8 %26 to i32
  %28 = xor i32 %22, %27
  %29 = load i8, ptr %10, align 1, !tbaa !15
  %30 = zext i8 %29 to i32
  %31 = or i32 %30, %28
  %32 = trunc i32 %31 to i8
  store i8 %32, ptr %10, align 1, !tbaa !15
  br label %33

33:                                               ; preds = %17
  %34 = load i64, ptr %7, align 8, !tbaa !10
  %35 = add i64 %34, 1
  store i64 %35, ptr %7, align 8, !tbaa !10
  br label %13, !llvm.loop !16

36:                                               ; preds = %13
  %37 = load i8, ptr %10, align 1, !tbaa !15
  %38 = zext i8 %37 to i32
  call void @llvm.lifetime.end.p0(i64 1, ptr %10) #8
  call void @llvm.lifetime.end.p0(i64 8, ptr %9) #8
  call void @llvm.lifetime.end.p0(i64 8, ptr %8) #8
  call void @llvm.lifetime.end.p0(i64 8, ptr %7) #8
  ret i32 %38
}

; Function Attrs: nounwind uwtable
define hidden i32 @OPENSSL_hash32(ptr noundef %0, i64 noundef %1) #0 {
  %3 = alloca ptr, align 8
  %4 = alloca i64, align 8
  %5 = alloca ptr, align 8
  %6 = alloca i64, align 8
  %7 = alloca i32, align 4
  store ptr %0, ptr %3, align 8, !tbaa !6
  store i64 %1, ptr %4, align 8, !tbaa !10
  call void @llvm.lifetime.start.p0(i64 8, ptr %5) #8
  %8 = load ptr, ptr %3, align 8, !tbaa !6
  store ptr %8, ptr %5, align 8, !tbaa !13
  call void @llvm.lifetime.start.p0(i64 8, ptr %6) #8
  call void @llvm.lifetime.start.p0(i64 4, ptr %7) #8
  store i32 -2128831035, ptr %7, align 4, !tbaa !18
  store i64 0, ptr %6, align 8, !tbaa !10
  br label %9

9:                                                ; preds = %23, %2
  %10 = load i64, ptr %6, align 8, !tbaa !10
  %11 = load i64, ptr %4, align 8, !tbaa !10
  %12 = icmp ult i64 %10, %11
  br i1 %12, label %13, label %26

13:                                               ; preds = %9
  %14 = load ptr, ptr %5, align 8, !tbaa !13
  %15 = load i64, ptr %6, align 8, !tbaa !10
  %16 = getelementptr inbounds nuw i8, ptr %14, i64 %15
  %17 = load i8, ptr %16, align 1, !tbaa !15
  %18 = zext i8 %17 to i32
  %19 = load i32, ptr %7, align 4, !tbaa !18
  %20 = xor i32 %19, %18
  store i32 %20, ptr %7, align 4, !tbaa !18
  %21 = load i32, ptr %7, align 4, !tbaa !18
  %22 = mul i32 %21, 16777619
  store i32 %22, ptr %7, align 4, !tbaa !18
  br label %23

23:                                               ; preds = %13
  %24 = load i64, ptr %6, align 8, !tbaa !10
  %25 = add i64 %24, 1
  store i64 %25, ptr %6, align 8, !tbaa !10
  br label %9, !llvm.loop !20

26:                                               ; preds = %9
  %27 = load i32, ptr %7, align 4, !tbaa !18
  call void @llvm.lifetime.end.p0(i64 4, ptr %7) #8
  call void @llvm.lifetime.end.p0(i64 8, ptr %6) #8
  call void @llvm.lifetime.end.p0(i64 8, ptr %5) #8
  ret i32 %27
}

; Function Attrs: nounwind uwtable
define hidden ptr @OPENSSL_strdup(ptr noundef %0) #0 {
  %2 = alloca ptr, align 8
  store ptr %0, ptr %2, align 8, !tbaa !13
  %3 = load ptr, ptr %2, align 8, !tbaa !13
  %4 = call noalias ptr @strdup(ptr noundef %3) #8
  ret ptr %4
}

; Function Attrs: nounwind
declare noalias ptr @strdup(ptr noundef) #4

; Function Attrs: nounwind uwtable
define hidden i64 @OPENSSL_strnlen(ptr noundef %0, i64 noundef %1) #0 {
  %3 = alloca i64, align 8
  %4 = alloca ptr, align 8
  %5 = alloca i64, align 8
  %6 = alloca i64, align 8
  %7 = alloca i32, align 4
  store ptr %0, ptr %4, align 8, !tbaa !13
  store i64 %1, ptr %5, align 8, !tbaa !10
  call void @llvm.lifetime.start.p0(i64 8, ptr %6) #8
  store i64 0, ptr %6, align 8, !tbaa !10
  br label %8

8:                                                ; preds = %22, %2
  %9 = load i64, ptr %6, align 8, !tbaa !10
  %10 = load i64, ptr %5, align 8, !tbaa !10
  %11 = icmp ult i64 %9, %10
  br i1 %11, label %12, label %25

12:                                               ; preds = %8
  %13 = load ptr, ptr %4, align 8, !tbaa !13
  %14 = load i64, ptr %6, align 8, !tbaa !10
  %15 = getelementptr inbounds nuw i8, ptr %13, i64 %14
  %16 = load i8, ptr %15, align 1, !tbaa !15
  %17 = sext i8 %16 to i32
  %18 = icmp eq i32 %17, 0
  br i1 %18, label %19, label %21

19:                                               ; preds = %12
  %20 = load i64, ptr %6, align 8, !tbaa !10
  store i64 %20, ptr %3, align 8
  store i32 1, ptr %7, align 4
  br label %27

21:                                               ; preds = %12
  br label %22

22:                                               ; preds = %21
  %23 = load i64, ptr %6, align 8, !tbaa !10
  %24 = add i64 %23, 1
  store i64 %24, ptr %6, align 8, !tbaa !10
  br label %8, !llvm.loop !21

25:                                               ; preds = %8
  %26 = load i64, ptr %5, align 8, !tbaa !10
  store i64 %26, ptr %3, align 8
  store i32 1, ptr %7, align 4
  br label %27

27:                                               ; preds = %25, %19
  call void @llvm.lifetime.end.p0(i64 8, ptr %6) #8
  %28 = load i64, ptr %3, align 8
  ret i64 %28
}

; Function Attrs: nounwind uwtable
define hidden i32 @OPENSSL_strcasecmp(ptr noundef %0, ptr noundef %1) #0 {
  %3 = alloca ptr, align 8
  %4 = alloca ptr, align 8
  store ptr %0, ptr %3, align 8, !tbaa !13
  store ptr %1, ptr %4, align 8, !tbaa !13
  %5 = load ptr, ptr %3, align 8, !tbaa !13
  %6 = load ptr, ptr %4, align 8, !tbaa !13
  %7 = call i32 @strcasecmp(ptr noundef %5, ptr noundef %6) #10
  ret i32 %7
}

; Function Attrs: nounwind willreturn memory(read)
declare i32 @strcasecmp(ptr noundef, ptr noundef) #6

; Function Attrs: nounwind uwtable
define hidden i32 @OPENSSL_strncasecmp(ptr noundef %0, ptr noundef %1, i64 noundef %2) #0 {
  %4 = alloca ptr, align 8
  %5 = alloca ptr, align 8
  %6 = alloca i64, align 8
  store ptr %0, ptr %4, align 8, !tbaa !13
  store ptr %1, ptr %5, align 8, !tbaa !13
  store i64 %2, ptr %6, align 8, !tbaa !10
  %7 = load ptr, ptr %4, align 8, !tbaa !13
  %8 = load ptr, ptr %5, align 8, !tbaa !13
  %9 = load i64, ptr %6, align 8, !tbaa !10
  %10 = call i32 @strncasecmp(ptr noundef %7, ptr noundef %8, i64 noundef %9) #10
  ret i32 %10
}

; Function Attrs: nounwind willreturn memory(read)
declare i32 @strncasecmp(ptr noundef, ptr noundef, i64 noundef) #6

; Function Attrs: nounwind uwtable
define hidden i32 @BIO_snprintf(ptr noundef %0, i64 noundef %1, ptr noundef %2, ...) #0 {
  %4 = alloca ptr, align 8
  %5 = alloca i64, align 8
  %6 = alloca ptr, align 8
  %7 = alloca [1 x %struct.__va_list_tag], align 16
  %8 = alloca i32, align 4
  store ptr %0, ptr %4, align 8, !tbaa !13
  store i64 %1, ptr %5, align 8, !tbaa !10
  store ptr %2, ptr %6, align 8, !tbaa !13
  call void @llvm.lifetime.start.p0(i64 24, ptr %7) #8
  call void @llvm.lifetime.start.p0(i64 4, ptr %8) #8
  %9 = getelementptr inbounds [1 x %struct.__va_list_tag], ptr %7, i64 0, i64 0
  call void @llvm.va_start.p0(ptr %9)
  %10 = load ptr, ptr %4, align 8, !tbaa !13
  %11 = load i64, ptr %5, align 8, !tbaa !10
  %12 = load ptr, ptr %6, align 8, !tbaa !13
  %13 = getelementptr inbounds [1 x %struct.__va_list_tag], ptr %7, i64 0, i64 0
  %14 = call i32 @BIO_vsnprintf(ptr noundef %10, i64 noundef %11, ptr noundef %12, ptr noundef %13)
  store i32 %14, ptr %8, align 4, !tbaa !18
  %15 = getelementptr inbounds [1 x %struct.__va_list_tag], ptr %7, i64 0, i64 0
  call void @llvm.va_end.p0(ptr %15)
  %16 = load i32, ptr %8, align 4, !tbaa !18
  call void @llvm.lifetime.end.p0(i64 4, ptr %8) #8
  call void @llvm.lifetime.end.p0(i64 24, ptr %7) #8
  ret i32 %16
}

; Function Attrs: nocallback nofree nosync nounwind willreturn
declare void @llvm.va_start.p0(ptr) #7

; Function Attrs: nounwind uwtable
define hidden i32 @BIO_vsnprintf(ptr noundef %0, i64 noundef %1, ptr noundef %2, ptr noundef %3) #0 {
  %5 = alloca ptr, align 8
  %6 = alloca i64, align 8
  %7 = alloca ptr, align 8
  %8 = alloca ptr, align 8
  store ptr %0, ptr %5, align 8, !tbaa !13
  store i64 %1, ptr %6, align 8, !tbaa !10
  store ptr %2, ptr %7, align 8, !tbaa !13
  store ptr %3, ptr %8, align 8, !tbaa !22
  %9 = load ptr, ptr %5, align 8, !tbaa !13
  %10 = load i64, ptr %6, align 8, !tbaa !10
  %11 = load ptr, ptr %7, align 8, !tbaa !13
  %12 = load ptr, ptr %8, align 8, !tbaa !22
  %13 = call i32 @vsnprintf(ptr noundef %9, i64 noundef %10, ptr noundef %11, ptr noundef %12) #8
  ret i32 %13
}

; Function Attrs: nocallback nofree nosync nounwind willreturn
declare void @llvm.va_end.p0(ptr) #7

; Function Attrs: nounwind
declare i32 @vsnprintf(ptr noundef, i64 noundef, ptr noundef, ptr noundef) #4


!llvm.module.flags = !{!0, !1, !2, !3, !4, !5}

!0 = !{i32 7, !"Dwarf Version", i32 5}
!1 = !{i32 2, !"Debug Info Version", i32 3}
!2 = !{i32 1, !"wchar_size", i32 4}
!3 = !{i32 8, !"PIC Level", i32 1}
!4 = !{i32 7, !"uwtable", i32 2}
!5 = !{i32 7, !"debug-info-assignment-tracking", i1 true}
!6 = !{!7, !7, i64 0}
!7 = !{!"any pointer", !8, i64 0}
!8 = !{!"omnipotent char", !9, i64 0}
!9 = !{!"Simple C/C++ TBAA"}
!10 = !{!11, !11, i64 0}
!11 = !{!"long", !8, i64 0}
!12 = !{i64 4479}
!13 = !{!14, !14, i64 0}
!14 = !{!"p1 omnipotent char", !7, i64 0}
!15 = !{!8, !8, i64 0}
!16 = distinct !{!16, !17}
!17 = !{!"llvm.loop.mustprogress"}
!18 = !{!19, !19, i64 0}
!19 = !{!"int", !8, i64 0}
!20 = distinct !{!20, !17}
!21 = distinct !{!21, !17}
!22 = !{!23, !23, i64 0}
!23 = !{!"p1 _ZTS13__va_list_tag", !7, i64 0}
