; ModuleID = 'bench/libquic/original/mem.ll'
source_filename = "bench/libquic/original/mem.ll"
target datalayout = "e-m:e-p270:32:32-p271:32:32-p272:64:64-i64:64-i128:128-f80:128-n8:16:32:64-S128"
target triple = "x86_64-pc-linux-gnu"

%struct.__va_list_tag = type { i32, i32, ptr, ptr }

; Function Attrs: nounwind uwtable
define hidden noundef ptr @OPENSSL_realloc_clean(ptr noundef %0, i64 noundef %1, i64 noundef %2) local_unnamed_addr #0 {
  %4 = icmp eq ptr %0, null
  br i1 %4, label %5, label %7

5:                                                ; preds = %3
  %6 = tail call noalias ptr @malloc(i64 noundef %2) #14
  br label %14

7:                                                ; preds = %3
  %8 = icmp eq i64 %2, 0
  %9 = icmp ult i64 %2, %1
  %or.cond = or i1 %8, %9
  br i1 %or.cond, label %14, label %10

10:                                               ; preds = %7
  %11 = tail call noalias ptr @malloc(i64 noundef %2) #14
  %12 = icmp eq ptr %11, null
  br i1 %12, label %14, label %13

13:                                               ; preds = %10
  tail call void @llvm.memcpy.p0.p0.i64(ptr nonnull align 1 %11, ptr nonnull align 1 %0, i64 %1, i1 false)
  tail call void @llvm.memset.p0.i64(ptr nonnull align 1 %0, i8 0, i64 %1, i1 false)
  tail call void asm sideeffect "", "r,~{memory},~{dirflag},~{fpsr},~{flags}"(ptr nonnull %0) #15, !srcloc !6
  tail call void @free(ptr noundef nonnull %0) #15
  br label %14

14:                                               ; preds = %10, %7, %13, %5
  %.0 = phi ptr [ %6, %5 ], [ %11, %13 ], [ null, %7 ], [ null, %10 ]
  ret ptr %.0
}

; Function Attrs: mustprogress nocallback nofree nosync nounwind willreturn memory(argmem: readwrite)
declare void @llvm.lifetime.start.p0(i64 immarg, ptr captures(none)) #1

; Function Attrs: mustprogress nofree nounwind willreturn allockind("alloc,uninitialized") allocsize(0) memory(inaccessiblemem: readwrite)
declare noalias noundef ptr @malloc(i64 noundef) local_unnamed_addr #2

; Function Attrs: mustprogress nocallback nofree nounwind willreturn memory(argmem: readwrite)
declare void @llvm.memcpy.p0.p0.i64(ptr noalias writeonly captures(none), ptr noalias readonly captures(none), i64, i1 immarg) #3

; Function Attrs: nounwind uwtable
define hidden void @OPENSSL_cleanse(ptr noundef %0, i64 noundef %1) local_unnamed_addr #0 {
  tail call void @llvm.memset.p0.i64(ptr align 1 %0, i8 0, i64 %1, i1 false)
  tail call void asm sideeffect "", "r,~{memory},~{dirflag},~{fpsr},~{flags}"(ptr %0) #15, !srcloc !6
  ret void
}

; Function Attrs: mustprogress nounwind willreturn allockind("free") memory(argmem: readwrite, inaccessiblemem: readwrite)
declare void @free(ptr allocptr noundef captures(none)) local_unnamed_addr #4

; Function Attrs: mustprogress nocallback nofree nosync nounwind willreturn memory(argmem: readwrite)
declare void @llvm.lifetime.end.p0(i64 immarg, ptr captures(none)) #1

; Function Attrs: mustprogress nocallback nofree nounwind willreturn memory(argmem: write)
declare void @llvm.memset.p0.i64(ptr writeonly captures(none), i8, i64, i1 immarg) #5

; Function Attrs: nofree norecurse nosync nounwind memory(argmem: read) uwtable
define hidden range(i32 0, 256) i32 @CRYPTO_memcmp(ptr noundef readonly captures(none) %0, ptr noundef readonly captures(none) %1, i64 noundef %2) local_unnamed_addr #6 {
  %.not = icmp eq i64 %2, 0
  br i1 %.not, label %._crit_edge, label %.lr.ph

.lr.ph:                                           ; preds = %3, %.lr.ph
  %.012 = phi i8 [ %9, %.lr.ph ], [ 0, %3 ]
  %.01011 = phi i64 [ %10, %.lr.ph ], [ 0, %3 ]
  %4 = getelementptr inbounds nuw i8, ptr %0, i64 %.01011
  %5 = load i8, ptr %4, align 1, !tbaa !7
  %6 = getelementptr inbounds nuw i8, ptr %1, i64 %.01011
  %7 = load i8, ptr %6, align 1, !tbaa !7
  %8 = xor i8 %7, %5
  %9 = or i8 %8, %.012
  %10 = add nuw i64 %.01011, 1
  %exitcond.not = icmp eq i64 %10, %2
  br i1 %exitcond.not, label %._crit_edge.loopexit, label %.lr.ph, !llvm.loop !10

._crit_edge.loopexit:                             ; preds = %.lr.ph
  %11 = zext i8 %9 to i32
  br label %._crit_edge

._crit_edge:                                      ; preds = %._crit_edge.loopexit, %3
  %.0.lcssa = phi i32 [ 0, %3 ], [ %11, %._crit_edge.loopexit ]
  ret i32 %.0.lcssa
}

; Function Attrs: nofree norecurse nosync nounwind memory(argmem: read) uwtable
define hidden i32 @OPENSSL_hash32(ptr noundef readonly captures(none) %0, i64 noundef %1) local_unnamed_addr #6 {
  %.not = icmp eq i64 %1, 0
  br i1 %.not, label %._crit_edge, label %.lr.ph

.lr.ph:                                           ; preds = %2, %.lr.ph
  %.010 = phi i32 [ %7, %.lr.ph ], [ -2128831035, %2 ]
  %.089 = phi i64 [ %8, %.lr.ph ], [ 0, %2 ]
  %3 = getelementptr inbounds nuw i8, ptr %0, i64 %.089
  %4 = load i8, ptr %3, align 1, !tbaa !7
  %5 = zext i8 %4 to i32
  %6 = xor i32 %.010, %5
  %7 = mul i32 %6, 16777619
  %8 = add nuw i64 %.089, 1
  %exitcond.not = icmp eq i64 %8, %1
  br i1 %exitcond.not, label %._crit_edge, label %.lr.ph, !llvm.loop !12

._crit_edge:                                      ; preds = %.lr.ph, %2
  %.0.lcssa = phi i32 [ -2128831035, %2 ], [ %7, %.lr.ph ]
  ret i32 %.0.lcssa
}

; Function Attrs: mustprogress nofree nounwind willreturn memory(argmem: readwrite, inaccessiblemem: readwrite) uwtable
define hidden noalias ptr @OPENSSL_strdup(ptr noundef readonly captures(none) %0) local_unnamed_addr #7 {
  %2 = tail call noalias ptr @strdup(ptr noundef %0) #15
  ret ptr %2
}

; Function Attrs: mustprogress nofree nounwind willreturn memory(argmem: readwrite, inaccessiblemem: readwrite)
declare noalias ptr @strdup(ptr noundef readonly captures(none)) local_unnamed_addr #8

; Function Attrs: nofree norecurse nosync nounwind memory(argmem: read) uwtable
define hidden i64 @OPENSSL_strnlen(ptr noundef readonly captures(none) %0, i64 noundef %1) local_unnamed_addr #6 {
  %.not = icmp eq i64 %1, 0
  br i1 %.not, label %._crit_edge, label %.lr.ph

.lr.ph:                                           ; preds = %2, %6
  %.09 = phi i64 [ %7, %6 ], [ 0, %2 ]
  %3 = getelementptr inbounds nuw i8, ptr %0, i64 %.09
  %4 = load i8, ptr %3, align 1, !tbaa !7
  %5 = icmp eq i8 %4, 0
  br i1 %5, label %._crit_edge, label %6

6:                                                ; preds = %.lr.ph
  %7 = add nuw i64 %.09, 1
  %exitcond.not = icmp eq i64 %7, %1
  br i1 %exitcond.not, label %._crit_edge, label %.lr.ph, !llvm.loop !13

._crit_edge:                                      ; preds = %.lr.ph, %6, %2
  %.07 = phi i64 [ 0, %2 ], [ %1, %6 ], [ %.09, %.lr.ph ]
  ret i64 %.07
}

; Function Attrs: mustprogress nofree nounwind willreturn memory(read) uwtable
define hidden i32 @OPENSSL_strcasecmp(ptr noundef readonly captures(none) %0, ptr noundef readonly captures(none) %1) local_unnamed_addr #9 {
  %3 = tail call i32 @strcasecmp(ptr noundef %0, ptr noundef %1) #16
  ret i32 %3
}

; Function Attrs: mustprogress nofree nounwind willreturn memory(read)
declare i32 @strcasecmp(ptr noundef captures(none), ptr noundef captures(none)) local_unnamed_addr #10

; Function Attrs: mustprogress nofree nounwind willreturn memory(read) uwtable
define hidden i32 @OPENSSL_strncasecmp(ptr noundef readonly captures(none) %0, ptr noundef readonly captures(none) %1, i64 noundef %2) local_unnamed_addr #9 {
  %4 = tail call i32 @strncasecmp(ptr noundef %0, ptr noundef %1, i64 noundef %2) #16
  ret i32 %4
}

; Function Attrs: mustprogress nofree nounwind willreturn memory(read)
declare i32 @strncasecmp(ptr noundef captures(none), ptr noundef captures(none), i64 noundef) local_unnamed_addr #10

; Function Attrs: nofree nounwind uwtable
define hidden noundef i32 @BIO_snprintf(ptr noundef captures(none) %0, i64 noundef %1, ptr noundef readonly captures(none) %2, ...) local_unnamed_addr #11 {
  %4 = alloca [1 x %struct.__va_list_tag], align 16
  call void @llvm.lifetime.start.p0(i64 24, ptr nonnull %4) #15
  call void @llvm.va_start.p0(ptr nonnull %4)
  %5 = call noundef i32 @vsnprintf(ptr noundef %0, i64 noundef %1, ptr noundef readonly %2, ptr noundef nonnull %4) #15
  call void @llvm.va_end.p0(ptr nonnull %4)
  call void @llvm.lifetime.end.p0(i64 24, ptr nonnull %4) #15
  ret i32 %5
}

; Function Attrs: mustprogress nocallback nofree nosync nounwind willreturn
declare void @llvm.va_start.p0(ptr) #12

; Function Attrs: nofree nounwind uwtable
define hidden noundef i32 @BIO_vsnprintf(ptr noundef captures(none) %0, i64 noundef %1, ptr noundef readonly captures(none) %2, ptr noundef %3) local_unnamed_addr #11 {
  %5 = tail call i32 @vsnprintf(ptr noundef %0, i64 noundef %1, ptr noundef %2, ptr noundef %3) #15
  ret i32 %5
}

; Function Attrs: mustprogress nocallback nofree nosync nounwind willreturn
declare void @llvm.va_end.p0(ptr) #12

; Function Attrs: nofree nounwind
declare noundef i32 @vsnprintf(ptr noundef captures(none), i64 noundef, ptr noundef readonly captures(none), ptr noundef) local_unnamed_addr #13


!llvm.module.flags = !{!0, !1, !2, !3, !4, !5}

!0 = !{i32 7, !"Dwarf Version", i32 5}
!1 = !{i32 2, !"Debug Info Version", i32 3}
!2 = !{i32 1, !"wchar_size", i32 4}
!3 = !{i32 8, !"PIC Level", i32 1}
!4 = !{i32 7, !"uwtable", i32 2}
!5 = !{i32 7, !"debug-info-assignment-tracking", i1 true}
!6 = !{i64 4479}
!7 = !{!8, !8, i64 0}
!8 = !{!"omnipotent char", !9, i64 0}
!9 = !{!"Simple C/C++ TBAA"}
!10 = distinct !{!10, !11}
!11 = !{!"llvm.loop.mustprogress"}
!12 = distinct !{!12, !11}
!13 = distinct !{!13, !11}
